target datalayout = "e-m:e-p270:32:32-p271:32:32-p272:64:64-i64:64-i128:128-f80:128-n8:16:32:64-S128"
target triple = "x86_64-pc-linux-gnu"

%struct.Fraig_NodeStruct_t_ = type { i32, i32, i32, i32, i32, i32, i32, ptr, ptr, ptr, ptr, ptr, ptr, ptr, ptr, i32, i32, ptr, ptr, ptr, ptr, ptr, ptr, ptr }

; Function Attrs: nounwind uwtable
define i32 @Fraig_NodeComparePhase(ptr noundef %0, ptr noundef %1) #0 {
  %3 = alloca ptr, align 8
  %4 = alloca ptr, align 8
  store ptr %0, ptr %3, align 8, !tbaa !30
  store ptr %1, ptr %4, align 8, !tbaa !30
  %5 = load ptr, ptr %3, align 8, !tbaa !30
  %6 = getelementptr inbounds nuw %struct.Fraig_NodeStruct_t_, ptr %5, i32 0, i32 6
  %7 = load i32, ptr %6, align 8
  %8 = and i32 %7, 1
  %9 = load ptr, ptr %4, align 8, !tbaa !30
  %10 = getelementptr inbounds nuw %struct.Fraig_NodeStruct_t_, ptr %9, i32 0, i32 6
  %11 = load i32, ptr %10, align 8
  %12 = and i32 %11, 1
  %13 = xor i32 %8, %12
  ret i32 %13
}